(dp0
S''
p1
I59
sS'limited'
p2
I855
sS'todays'
p3
I619
sS'1,800'
p4
I250
sS'foul'
p5
I668
sS'four'
p6
I219
sS'party '
p7
I1572
sS"candidates'"
p8
I444
sS'battleground'
p9
I357
sS'hate'
p10
I1119
sS'U N '
p11
I812
sS'party,'
p12
I1821
sS'2005,'
p13
I1285
sS'votes'
p14
I434
sS'voter'
p15
I2247
sS'Duckworth,'
p16
I1535
sS'razor wire'
p17
I1155
sS'quadruple'
p18
I1472
sS'Ronald'
p19
I2008
sS'voted'
p20
I2372
sS'fog,'
p21
I50
sS'partys'
p22
I1683
sS'legislators'
p23
I1117
sS'rescue'
p24
I1365
sS'relief,'
p25
I2167
sS'connects'
p26
I1369
sS"'razor"
p27
I1513
sS'every'
p28
I478
sS'Henry'
p29
I2512
sS'politician'
p30
I780
sS'today,'
p31
I124
sS'bringing'
p32
I1050
sS'look'
p33
I1231
sS'Americaland'
p34
I999
sS'school'
p35
I2124
sS'internally'
p36
I864
sS'recapturing'
p37
I1559
sS'vote '
p38
I2130
sS'refugees '
p39
I1426
sS'deadline'
p40
I307
sS'Duckworths'
p41
I1696
sS'vote,'
p42
I2212
sS'triumph'
p43
I1705
sS'diverting'
p44
I388
sS'Republican held'
p45
I1630
sS'47% '
p46
I1802
sS'Sessini/Magnum'
p47
I1078
sS'Angeles '
p48
I2402
sS'second'
p49
I286
sS'crisply'
p50
I1110
sS'eroded'
p51
I1564
sS'others,'
p52
I2160
sS'even'
p53
I424
sS'change,'
p54
I625
sS'century,'
p55
I742
sS'filibusters'
p56
I1872
sS'Afghans,'
p57
I849
sS'integrity'
p58
I2301
sS'contributed'
p59
I464
sS'change '
p60
I909
sS'nerve jangling'
p61
I1702
sS'wouldnt'
p62
I2222
sS'haze'
p63
I14
sS'leave '
p64
I720
sS'ever'
p65
I817
sS'report '
p66
I465
sS'told'
p67
I1712
sS'10,'
p68
I2237
sS'never'
p69
I552
sS'hundreds'
p70
I680
sS'reported'
p71
I2064
sS'asymmetry'
p72
I616
sS'phone,'
p73
I753
sS'ones He'
p74
I1940
sS'path'
p75
I1259
sS'Theres'
p76
I620
sS'kids'
p77
I156
sS'Dominique'
p78
I183
sS'worse '
p79
I694
sS'Tuesday'
p80
I1500
sS'Majoli/Magnum'
p81
I591
sS'filibuster;'
p82
I1867
sS'smoke'
p83
I148
sS'settled'
p84
I193
sS'company,'
p85
I410
sS'campaign'
p86
I321
sS'erected'
p87
I1154
sS'brought'
p88
I2095
sS'counts'
p89
I687
sS'total'
p90
I1033
sS'war '
p91
I671
sS'Russian'
p92
I2331
sS'charge'
p93
I782
sS'would'
p94
I725
sS'hospital'
p95
I263
sS'voters'
p96
I2026
sS'Manmade'
p97
I1469
sS'Atlanta '
p98
I2437
sS'assessment'
p99
I772
sS'supporters'
p100
I1713
sS'populations'
p101
I748
sS'successful'
p102
I2047
sS'brings'
p103
I2134
sS'expose'
p104
I922
sS'Trump I'
p105
I2345
sS'charged'
p106
I2405
sS'hold'
p107
I1604
sS'must'
p108
I1981
sS'shoot'
p109
I1256
sS'House '
p110
I1779
sS'room'
p111
I16
sS'rights'
p112
I2262
sS'work'
p113
I1715
sS'Bush'
p114
I2004
sS'era'
p115
I793
sS'upscale'
p116
I2435
sS'months long'
p117
I1587
sS'President elect'
p118
I1890
sS'Kirkpatrick,'
p119
I1670
sS'La'
p120
I1074
sS'Bayh'
p121
I1738
sS'10,000'
p122
I1446
sS'want'
p123
I733
sS'keep'
p124
I3
sS'Elsewhere,'
p125
I2289
sS'races '
p126
I1635
sS'races,'
p127
I390
sS'Nevada,'
p128
I1765
sS'damage'
p129
I96
sS'how'
p130
I1373
sS'win,'
p131
I1714
sS'faulty'
p132
I2291
sS'beach'
p133
I1177
sS'massive'
p134
I2040
sS'A'
p135
I109
sS'Eritrea'
p136
I486
sS'earlier'
p137
I322
sS'A J '
p138
I2356
sS'modest'
p139
I1136
sS'Atlanta,'
p140
I2370
sS'II,'
p141
I980
sS'law'
p142
I1158
sS'meaningful'
p143
I2394
sS'three day'
p144
I249
sS'Muslim '
p145
I1152
sS'US'
p146
I1499
sS'All'
p147
I910
sS'effective'
p148
I2031
sS'Civil'
p149
I673
sS'amid'
p150
I1429
sS'revolt'
p151
I1837
sS'cigarettes'
p152
I106
sS'Another'
p153
I165
sS'keeps'
p154
I2131
sS'(left),'
p155
I2419
sS'order'
p156
I1201
sS'propaganda,'
p157
I2346
sS'untold'
p158
I868
sS'welcomed'
p159
I994
sS'Amaan'
p160
I135
sS'smugglers,'
p161
I876
sS'ghastly'
p162
I1181
sS'scoring'
p163
I1947
sS'40%'
p164
I724
sS'His'
p165
I802
sS'then,'
p166
I1212
sS'personal'
p167
I1704
sS'screaming'
p168
I2439
sS'fix'
p169
I2121
sS'40,'
p170
I1249
sS'expectations'
p171
I1552
sS'better'
p172
I314
sS'narrowest'
p173
I482
sS'Evan'
p174
I1737
sS'closed '
p175
I159
sS'weeks'
p176
I226
sS'closed,'
p177
I1794
sS'Spain'
p178
I1253
sS'background '
p179
I1545
sS'history '
p180
I1218
sS'eventually'
p181
I349
sS'campto'
p182
I1447
sS'There'
p183
I122
sS'economy,'
p184
I1330
sS'Britain '
p185
I1460
sS'intimidation'
p186
I2143
sS'break'
p187
I1997
sS'bang'
p188
I637
sS'week,'
p189
I195
sS'victories'
p190
I1903
sS'victory'
p191
I1525
sS'went'
p192
I1540
sS'campaign '
p193
I1566
sS'financial'
p194
I1950
sS'series'
p195
I238
sS'displacement'
p196
I797
sS'campaign,'
p197
I1045
sS'seats '
p198
I1605
sS'carry'
p199
I1710
sS'broken,'
p200
I2119
sS'lawyers'
p201
I2255
sS'seats,'
p202
I1617
sS'message'
p203
I2029
sS'fraught'
p204
I2172
sS'350,000 '
p205
I1441
sS'day,'
p206
I107
sS'start,'
p207
I695
sS'washes'
p208
I1175
sS'turning'
p209
I1079
sS'resume'
p210
I398
sS'University'
p211
I1302
sS'threatened'
p212
I1876
sS'given'
p213
I1558
sS'free'
p214
I953
sS'campaigns'
p215
I2236
sS'struggle'
p216
I554
sS'forcibly'
p217
I683
sS'wanted'
p218
I719
sS'occasionally,'
p219
I1173
sS'Paul'
p220
I1832
sS'certified'
p221
I403
sS'War?'
p222
I674
sS'Clinton'
p223
I1511
sS'created'
p224
I1939
sS'voters,'
p225
I2043
sS'refugee'
p226
I860
sS'go '
p227
I881
sS'elected A'
p228
I1990
sS'districts,'
p229
I2389
sS'Ukrainians'
p230
I682
sS'Human'
p231
I1342
sS'moving'
p232
I1271
sS'York,'
p233
I2330
sS'66 year old'
p234
I776
sS'onto'
p235
I515
sS'War '
p236
I1226
sS'industrial'
p237
I1906
sS'too,'
p238
I153
sS'primary'
p239
I1395
sS'rank'
p240
I1409
sS'wash'
p241
I258
sS'featured'
p242
I1631
sS'another'
p243
I350
sS'skeptical'
p244
I2158
sS'thick'
p245
I35
sS'Congress'
p246
I406
sS'top'
p247
I1937
sS'Toomey'
p248
I1781
sS'nation,'
p249
I1895
sS'needed'
p250
I1606
sS'easy '
p251
I10
sS'witnessing'
p252
I762
sS'Press'
p253
I463
sS'legs'
p254
I1538
sS'nation '
p255
I1114
sS'tossup'
p256
I1760
sS'urban'
p257
I1329
sS'Hall,'
p258
I2184
sS'States '
p259
I1254
sS'centered'
p260
I2300
sS'States,'
p261
I1383
sS'serve'
p262
I439
sS'took'
p263
I1943
sS'somewhat'
p264
I2137
sS'Guatemala,'
p265
I1346
sS'decades '
p266
I1196
sS'anxiety'
p267
I2431
sS'immigrants'
p268
I1057
sS'air,'
p269
I149
sS'likely'
p270
I692
sS'project'
p271
I467
sS'matter'
p272
I1473
sS'See'
p273
I354
sS'to,'
p274
I734
sS'mitigating'
p275
I272
sS'joy'
p276
I1954
sS'feeling'
p277
I2107
sS'bridge'
p278
I530
sS'sees'
p279
I1851
sS'ran'
p280
I1533
sS'modern'
p281
I538
sS'mind'
p282
I2441
sS're election '
p283
I311
sS'advising'
p284
I256
sS'difference,'
p285
I2418
sS'seen'
p286
I594
sS'seem'
p287
I2453
sS'paddled'
p288
I514
sS'seek'
p289
I285
sS'well '
p290
I750
sS'relatively'
p291
I977
sS'forced'
p292
I796
sS'strength'
p293
I1624
sS'Christian'
p294
I1139
sS'mostly'
p295
I2341
sS'data '
p296
I1400
sS'breathe,'
p297
I150
sS'chest'
p298
I269
sS'absorbed'
p299
I982
sS'neighborhood '
p300
I2191
sS'They'
p301
I708
sS'season'
p302
I2451
sS'neighborhood,'
p303
I2397
sS'2014 (Photo'
p304
I1366
sS'though'
p305
I128
sS'mid summer'
p306
I786
sS'contenders'
p307
I1550
sS'hide'
p308
I755
sS'thing '
p309
I732
sS'subject '
p310
I1323
sS'paradigm'
p311
I763
sS'guidelines,'
p312
I255
sS'door,'
p313
I13
sS'professor'
p314
I1300
sS'camp'
p315
I1436
sS'dog'
p316
I631
sS'knows)'
p317
I491
sS'swamp'
p318
I556
sS'reputation'
p319
I304
sS'Election'
p320
I2078
sS'deeply'
p321
I1893
sS'voting'
p322
I1792
sS'responded'
p323
I1084
sS'came'
p324
I1661
sS'saying'
p325
I310
sS'Albania '
p326
I1319
sS'Monitor'
p327
I2175
sS'Union'
p328
I1083
sS'Agency'
p329
I121
sS'Saman/Magnum'
p330
I589
sS'Anne'
p331
I1669
sS"best I'm"
p332
I2486
sS'Day '
p333
I2146
sS'European'
p334
I853
sS'proposed'
p335
I1039
sS'establishment "I'
p336
I1915
sS'Crist '
p337
I461
sS'guidance'
p338
I1929
sS'Republicans'
p339
I395
sS'Dec '
p340
I1027
sS'2 5,'
p341
I79
sS'run '
p342
I351
sS'theme'
p343
I1368
sS'Others'
p344
I2157
sS'Echo'
p345
I2084
sS'Netherlands'
p346
I1102
sS'immigrants,'
p347
I1000
sS'allies Trump'
p348
I1934
sS'watch'
p349
I1512
sS'attempt,'
p350
I2375
sS'Francine'
p351
I2506
sS'foremost'
p352
I1312
sS'criticized'
p353
I421
sS'sniping'
p354
I1841
sS'new'
p355
I898
sS'/Unless'
p356
I929
sS'runs'
p357
I2141
sS'countries'
p358
I634
sS'officially'
p359
I885
sS'Washington'
p360
I1745
sS'Photograph '
p361
I1692
sS'architecture'
p362
I1304
sS'them '
p363
I2011
sS'release'
p364
I1676
sS'band,'
p365
I523
sS'elation,'
p366
I2165
sS'sites '
p367
I2268
sS'decided'
p368
I284
sS'result'
p369
I890
sS'term '
p370
I442
sS'John'
p371
I1666
sS'best'
p372
I368
sS'subject'
p373
I1238
sS'said'
p374
I134
sS'away'
p375
I6
sS'Rubio,'
p376
I283
sS'Syrians,'
p377
I848
sS'humankind'
p378
I543
sS'land lessness,'
p379
I1372
sS'Bell,'
p380
I2398
sS'Central'
p381
I1349
sS'handful'
p382
I2276
sS'"USA!"'
p383
I1961
sS'(AP)'
p384
I1889
sS'improve'
p385
I1974
sS'faced'
p386
I1118
sS'Syrias'
p387
I667
sS'climate'
p388
I896
sS'evpaorating'
p389
I1878
sS'flooring'
p390
I2491
sS'country'
p391
I1410
sS'uncertainty'
p392
I2281
sS'Philadelphia '
p393
I2310
sS'Rubios'
p394
I1641
sS'unhappy'
p395
I2294
sS'faces'
p396
I1836
sS'distinction'
p397
I924
sS'asked'
p398
I2311
sS'con'
p399
I1645
sS'tough'
p400
I1795
sS'1991 '
p401
I1443
sS'Guterres,'
p402
I769
sS'written'
p403
I2515
sS'ballots Some'
p404
I2153
sS'Curtain'
p405
I606
sS'voting,'
p406
I2403
sS'staggering'
p407
I1619
sS'now,'
p408
I2348
sS'strong'
p409
I1556
sS'puts'
p410
I927
sS'eager'
p411
I1970
sS'three'
p412
I57
sS'1 4'
p413
I987
sS'1 5'
p414
I847
sS'Early'
p415
I1044
sS'Hillary'
p416
I1561
sS'much'
p417
I72
sS'expected'
p418
I1471
sS'entered'
p419
I519
sS'dozens'
p420
I137
sS'life'
p421
I171
sS'families'
p422
I139
sS'attacked'
p423
I396
sS'drugs'
p424
I1051
sS'Poland'
p425
I1092
sS'dismiss'
p426
I2391
sS'child'
p427
I1174
sS'worked'
p428
I418
sS'TV '
p429
I2442
sS'horrors'
p430
I1430
sS'Lesbos,'
p431
I581
sS'presidency'
p432
I1616
sS'air'
p433
I5
sS'near'
p434
I1922
sS'moratorium'
p435
I243
sS'turnout '
p436
I2195
sS'ET,'
p437
I1656
sS'thought,'
p438
I2376
sS'photographer '
p439
I1340
sS'Ellis'
p440
I583
sS'character '
p441
I1140
sS'sticker'
p442
I2080
sS'defeated'
p443
I297
sS'said '
p444
I154
sS'Rubio'
p445
I296
sS'experts'
p446
I64
sS'11 30'
p447
I2070
sS'governor,'
p448
I1806
sS'2009 '
p449
I964
sS'ignoring'
p450
I2044
sS'said,'
p451
I447
sS'trusted'
p452
I429
sS're colored'
p453
I1386
sS'Around'
p454
I1654
sS'camp '
p455
I1448
sS'things'
p456
I2474
sS'make'
p457
I28
sS'clearly'
p458
I799
sS'potentially'
p459
I1863
sS'sheltered'
p460
I958
sS'Of'
p461
I573
sS'several'
p462
I1632
sS'bid'
p463
I290
sS'independent'
p464
I2251
sS'Institute'
p465
I2232
sS'Feingold'
p466
I1650
sS'ago '
p467
I279
sS'Angeles'
p468
I2088
sS'photographers'
p469
I1229
sS'blamed'
p470
I36
sS'kept'
p471
I1640
sS'rescinded'
p472
I1674
sS'resettlement'
p473
I1088
sS'Illinois,'
p474
I1526
sS'grabs,'
p475
I1629
sS'thing,'
p476
I843
sS'February '
p477
I1598
sS'claims'
p478
I2246
sS'the'
p479
I814
sS'camps'
p480
I1305
sS'left'
p481
I1787
sS'spurred'
p482
I230
sS'campaigns Pre election'
p483
I2048
sS'just'
p484
I130
sS'Mendoza/The'
p485
I2426
sS'designer '
p486
I2464
sS'Robert,'
p487
I2354
sS'courts'
p488
I1591
sS'human'
p489
I875
sS'depart'
p490
I2358
sS'yet'
p491
I340
sS'enters'
p492
I15
sS'candidate'
p493
I339
sS'office '
p494
I1576
sS'photographer'
p495
I1209
sS'countrys'
p496
I1009
sS'News'
p497
I356
sS'gave'
p498
I366
sS'ago,'
p499
I473
sS'casting'
p500
I1611
sS'melting'
p501
I1397
sS'possible'
p502
I754
sS'possibly'
p503
I666
sS'cultural'
p504
I623
sS'on I'
p505
I2471
sS'Missouri'
p506
I1777
sS'judge'
p507
I1581
sS'Faget/Agence'
p508
I184
sS'unique'
p509
I618
sS'shoulder'
p510
I1081
sS'dignity'
p511
I1283
sS'country '
p512
I997
sS'Trump'
p513
I330
sS'states,'
p514
I1761
sS'theyre'
p515
I1167
sS'specific'
p516
I642
sS'remind'
p517
I1282
sS'Migration'
p518
I1477
sS'70 vehicle'
p519
I37
sS'hung'
p520
I2249
sS'Delhis'
p521
I43
sS'right'
p522
I1838
sS'old'
p523
I696
sS'people'
p524
I563
sS'vice president'
p525
I1610
sS'mosques'
p526
I1041
sS'somehow'
p527
I2413
sS'dead'
p528
I1176
sS'born'
p529
I1250
sS'election'
p530
I360
sS'contests'
p531
I1547
sS'Syrians'
p532
I1006
sS'congratulate'
p533
I1967
sS'"The'
p534
I2215
sS'dense'
p535
I192
sS'island,'
p536
I1264
sS'armed'
p537
I756
sS'Facebook'
p538
I1688
sS'America"'
p539
I1964
sS'Chris'
p540
I2421
sS'He'
p541
I488
sS'unthinkably'
p542
I1451
sS'School'
p543
I937
sS'shakes'
p544
I1216
sS'night'
p545
I1518
sS'ply'
p546
I879
sS'Kosovar'
p547
I703
sS'shifting'
p548
I1860
sS'incumbent '
p549
I1691
sS'losing'
p550
I2440
sS'post'
p551
I2014
sS'incumbent,'
p552
I1530
sS'chapter'
p553
I1235
sS'dollars'
p554
I376
sS'citizens'
p555
I257
sS'two term'
p556
I302
sS"Party's"
p557
I1944
sS'undocumented'
p558
I1056
sS'despair'
p559
I557
sS'ensure'
p560
I378
sS'Still'
p561
I522
sS'slightly'
p562
I1524
sS'wintertime'
p563
I48
sS'fester,'
p564
I697
sS'Thirty four'
p565
I1628
sS'raised'
p566
I1252
sS'high turnout'
p567
I2227
sS'Florida,'
p568
I417
sS'civic'
p569
I2201
sS'civil'
p570
I670
sS'Clintons'
p571
I1562
sS'parties'
p572
I2027
sS'EST]'
p573
I2072
sS'shoots'
p574
I1269
sS'Sunday '
p575
I116
sS'slim'
p576
I1864
sS'midnight,'
p577
I1768
sS'support'
p578
I808
sS'firewall"'
p579
I1946
sS'overblown'
p580
I2454
sS'Times You'
p581
I145
sS'fight'
p582
I967
sS'fought'
p583
I1750
sS'way'
p584
I479
sS'unseat'
p585
I1651
sS'war'
p586
I569
sS'launching'
p587
I288
sS'happy'
p588
I2194
sS'lowest'
p589
I1195
sS'Clinton,'
p590
I2032
sS'failure'
p591
I1644
sS'heat'
p592
I894
sS'statement '
p593
I1979
sS'Korea,'
p594
I1457
sS'sustained'
p595
I97
sS'African American'
p596
I2185
sS'statement,'
p597
I787
sS'true'
p598
I1994
sS'Albanians (Photo'
p599
I712
sS'suffocations'
p600
I1185
sS'inside'
p601
I68
sS'different'
p602
I1145
sS'unusually'
p603
I770
sS'prayed'
p604
I2485
sS'fury'
p605
I895
sS'Some'
p606
I2094
sS'8,'
p607
I2150
sS'9 year old'
p608
I2197
sS'sometime'
p609
I1202
sS'promised'
p610
I1015
sS'prayer'
p611
I1125
sS'accounting'
p612
I419
sS'vulnerable,'
p613
I1725
sS'portrayed'
p614
I2448
sS'physical'
p615
I856
sS'Phares,'
p616
I2371
sS'wary'
p617
I2458
sS'Blaise'
p618
I1480
sS'reality'
p619
I1991
sS'vanished,'
p620
I1020
sS'pace,'
p621
I1198
sS'soundly'
p622
I331
sS'test'
p623
I911
sS'smell'
p624
I151
sS'Kiefer'
p625
I2507
sS'scored'
p626
I1896
sS'welcome'
p627
I1017
sS'fell'
p628
I1647
sS'Kabul,'
p629
I962
sS'businessman'
p630
I1678
sS'persecution'
p631
I1068
sS'weekend'
p632
I86
sS'began'
p633
I2089
sS'billion'
p634
I496
sS'longer'
p635
I1394
sS'paper,'
p636
I133
sS'10 day'
p637
I245
sS'American'
p638
I1043
sS'together'
p639
I1916
sS'loyal'
p640
I1933
sS'Indiana,'
p641
I1505
sS'time'
p642
I316
sS'victory ""We'
p643
I1969
sS'others'
p644
I851
sS'Everybody'
p645
I2494
sS'allowed'
p646
I2022
sS'huge '
p647
I1452
sS'illegally '
p648
I1053
sS'partition '
p649
I1431
sS'branches'
p650
I1621
sS'manager'
p651
I2490
sS'Democratic,'
p652
I2342
sS'continued '
p653
I1150
sS'Indiana'
p654
I1736
sS'Conflict'
p655
I1219
sS'Jessica'
p656
I2425
sS'certainly'
p657
I807
sS'oldest'
p658
I1424
sS'chances'
p659
I2059
sS'wars,'
p660
I658
sS'Burr'
p661
I1749
sS'trains,'
p662
I746
sS'suffered'
p663
I1618
sS'Day'
p664
I2079
sS'billionaire'
p665
I425
sS'particles,'
p666
I76
sS'choice'
p667
I952
sS'last minute'
p668
I2271
sS'defying'
p669
I1584
sS'wrong,"'
p670
I2060
sS'governments'
p671
I678
sS'Murphy '
p672
I1639
sS'poor,'
p673
I738
sS'Just'
p674
I1162
sS'level'
p675
I816
sS'die'
p676
I1180
sS'Towell/Magnum'
p677
I972
sS'September (Photos'
p678
I587
sS'leave'
p679
I726
sS'Alright,'
p680
I2496
sS'George'
p681
I2002
sS'Rex'
p682
I1694
sS'contesting '
p683
I2466
sS'says'
p684
I1445
sS'trails'
p685
I880
sS'requirements'
p686
I2283
sS'prediction'
p687
I358
sS'hand in hand'
p688
I1971
sS'Smog'
p689
I204
sS'Red'
p690
I484
sS'purpose In'
p691
I2163
sS'52%'
p692
I1658
sS'adds'
p693
I2318
sS'stands'
p694
I1573
sS'heres'
p695
I731
sS'"Let\'s'
p696
I312
sS'Public'
p697
I2327
sS'current'
p698
I646
sS'Cruz'
p699
I2075
sS'goes'
p700
I2304
sS'shared'
p701
I138
sS'appeal'
p702
I1828
sS'True'
p703
I1493
sS'filled'
p704
I2108
sS'supporting'
p705
I1844
sS'burn'
p706
I2090
sS'months'
p707
I278
sS'honour'
p708
I1716
sS'clerk'
p709
I2399
sS'Nov '
p710
I2149
sS'water'
p711
I261
sS'Europe '
p712
I1069
sS'groups'
p713
I373
sS'say '
p714
I108
sS'dissipated'
p715
I218
sS'say,'
p716
I1184
sS'Phares'
p717
I2351
sS'earthquake'
p718
I1287
sS'change'
p719
I1401
sS'wait'
p720
I2208
sS'box'
p721
I2135
sS'sending'
p722
I1048
sS'Associated'
p723
I462
sS'shift'
p724
I1408
sS'Pennsylvania,'
p725
I1776
sS'queue'
p726
I2139
sS'Seth,'
p727
I168
sS'here,'
p728
I2123
sS'usually'
p729
I1602
sS'here '
p730
I1476
sS'Technology'
p731
I2233
sS'retired'
p732
I2213
sS'case,'
p733
I212
sS'Justice'
p734
I2259
sS'bloody'
p735
I669
sS'morale'
p736
I1522
sS'media driven,'
p737
I2432
sS'crisis'
p738
I648
sS'voluntary,'
p739
I1086
sS'district '
p740
I2322
sS'regulations Delhis'
p741
I233
sS'positive'
p742
I1275
sS'give'
p743
I1724
sS'predictions'
p744
I2452
sS'migrant '
p745
I1169
sS'live'
p746
I1515
sS'Tammy'
p747
I1528
sS'migrant,'
p748
I1475
sS'Those'
p749
I585
sS'York'
p750
I144
sS'recently,'
p751
I1095
sS'commissioner'
p752
I781
sS'October'
p753
I1284
sS'series,'
p754
I1228
sS'Monday '
p755
I182
sS'These'
p756
I1362
sS'Monday,'
p757
I85
sS'Vietnam,'
p758
I985
sS'alt right'
p759
I2265
sS'effort'
p760
I901
sS'organizations'
p761
I2253
sS'1975,'
p762
I603
sS'Ron'
p763
I1652
sS'Kosovo'
p764
I608
sS'local'
p765
I1799
sS'incidents'
p766
I2277
sS'can'
p767
I26
sS'believed'
p768
I206
sS'making'
p769
I1159
sS'arrive'
p770
I1347
sS'claim'
p771
I1112
sS'Power,'
p772
I1297
sS'lobbying'
p773
I1744
sS'Catherine'
p774
I1771
sS'agent'
p775
I2024
sS'7pm'
p776
I1788
sS'dropped'
p777
I327
sS'sharp'
p778
I1996
sS'higher than normal'
p779
I2224
sS'counting'
p780
I1569
sS'engaged '
p781
I2178
sS'Pennsylvania'
p782
I1504
sS'monitoring'
p783
I1040
sS'humanitys'
p784
I1495
sS'Guterres'
p785
I788
sS'tilt'
p786
I1862
sS'secured'
p787
I1571
sS'Advertisement'
p788
I160
sS'endorsement'
p789
I1675
sS'map'
p790
I359
sS'mat'
p791
I1018
sS'crashes'
p792
I1217
sS'may'
p793
I1411
sS'sacrifice'
p794
I1708
sS'southern'
p795
I1061
sS'1980,'
p796
I993
sS'end'
p797
I2285
sS'nomination'
p798
I325
sS'man'
p799
I428
sS'natural'
p800
I891
sS'remember'
p801
I2209
sS'grandson'
p802
I2355
sS'different '
p803
I998
sS'taking,'
p804
I2206
sS'complaining'
p805
I2204
sS'humanity '
p806
I549
sS'abuzz'
p807
I2481
sS'years'
p808
I42
sS'statistical'
p809
I824
sS'weather,'
p810
I2104
sS'White'
p811
I1013
sS'still'
p812
I422
sS'blocked'
p813
I1855
sS'months '
p814
I1856
sS'Goldenziel,'
p815
I933
sS'group'
p816
I518
sS'monitor'
p817
I2267
sS'Delhi'
p818
I115
sS'window'
p819
I12
sS'World'
p820
I596
sS'main'
p821
I163
sS'decades'
p822
I199
sS'battlefield,'
p823
I1711
sS'closure'
p824
I246
sS'hope '
p825
I2109
sS'motion '
p826
I1390
sS'Iraqis'
p827
I850
sS'Ga ;'
p828
I2505
sS'nation'
p829
I1384
sS'year,'
p830
I852
sS'She'
p831
I2196
sS'wealthy'
p832
I412
sS'Tower'
p833
I1923
sS'now'
p834
I483
sS'year '
p835
I323
sS'killed'
p836
I1026
sS'term'
p837
I287
sS'independents,'
p838
I1603
sS'pre election'
p839
I1912
sS'decade '
p840
I822
sS'Patrik'
p841
I2365
sS'quarter'
p842
I717
sS'Barack'
p843
I1585
sS'challenger'
p844
I1751
sS'Peru'
p845
I1251
sS'year'
p846
I1203
sS'happen'
p847
I2396
sS'era Yet'
p848
I2051
sS'Deborah'
p849
I1752
sS'tried'
p850
I1811
sS'living'
p851
I0
sS'canvas'
p852
I956
sS'opened'
p853
I2147
sS'could '
p854
I727
sS'increase'
p855
I819
sS'shows'
p856
I1623
sS'police '
p857
I854
sS'Europeans '
p858
I984
sS'million'
p859
I45
sS'Knowledge'
p860
I2112
sS'growth '
p861
I1462
sS'Jonsson/The'
p862
I2366
sS'inevitable'
p863
I839
sS'card'
p864
I1341
sS'advance'
p865
I1352
sS'});'
p866
I1886
sS'turn'
p867
I1982
sS'place'
p868
I277
sS'Jerome'
p869
I1077
sS'126,000'
p870
I1193
sS'swing'
p871
I1848
sS'Hungary'
p872
I1093
sS'think'
p873
I1371
sS'waited'
p874
I1956
sS'first'
p875
I445
sS'Even'
p876
I1463
sS'Trump '
p877
I1814
sS'deaths In'
p878
I211
sS'anxiety,'
p879
I2166
sS'Trump,'
p880
I1031
sS'disturbing Asked'
p881
I173
sS'one'
p882
I63
sS'vote'
p883
I1613
sS'deadlocked'
p884
I1614
sS'ways'
p885
I2242
sS'California,'
p886
I2010
sS'Harry'
p887
I2509
sS'62,'
p888
I1335
sS'city'
p889
I252
sS'little'
p890
I337
sS'district'
p891
I2086
sS'anyone'
p892
I1728
sS'elected] '
p893
I2470
sS'white'
p894
I23
sS'voting rights'
p895
I2252
sS'participated'
p896
I2407
sS'national'
p897
I386
sS'lingering'
p898
I656
sS'eyes'
p899
I259
sS'on,'
p900
I2305
sS'Patrick'
p901
I300
sS'Tulika'
p902
I167
sS'violence,'
p903
I2278
sS'2011 '
p904
I2214
sS'released'
p905
I253
sS'occupation '
p906
I1128
sS'Trumps'
p907
I1554
sS'Cortez'
p908
I1772
sS'closer,'
p909
I1549
sS'grunt'
p910
I2045
sS'Yugoslavia,'
p911
I1318
sS'professionals'
p912
I1949
sS'television'
p913
I391
sS'Harvards'
p914
I935
sS'rival'
p915
I677
sS'crowded'
p916
I1932
sS'optimism'
p917
I2133
sS'protected'
p918
I886
sS'Pascal,'
p919
I1481
sS'outcome'
p920
I2159
sS'wandering'
p921
I783
sS'prospect'
p922
I2392
sS'Saigon'
p923
I602
sS'contrast,'
p924
I1011
sS'premier'
p925
I1905
sS'turned'
p926
I2387
sS'voices'
p927
I2335
sS"humanity's"
p928
I1486
sS'say'
p929
I65
sS'voiced'
p930
I2154
sS'borough'
p931
I2329
sS'law,'
p932
I942
sS'locations '
p933
I2284
sS'argued,'
p934
I1130
sS'veteran'
p935
I1536
sS'Murphy'
p936
I380
sS'shocked'
p937
I1288
sS'Merrick'
p938
I1589
sS'potential'
p939
I728
sS'take'
p940
I1230
sS'primaries'
p941
I335
sS'blunt'
p942
I771
sS'end point '
p943
I645
sS'sect'
p944
I1357
sS'Stuyvesant'
p945
I2190
sS'Theyve'
p946
I1170
sS'pain'
p947
I270
sS'Unlike'
p948
I737
sS'immigration'
p949
I991
sS'sheets'
p950
I132
sS'remarks'
p951
I2298
sS'GOP'
p952
I324
sS'Portuguese'
p953
I777
sS'especially'
p954
I659
sS'City,'
p955
I2480
sS'chanted'
p956
I1960
sS'shooter'
p957
I1237
sS'hungry'
p958
I2028
sS'science,'
p959
I500
sS'wing'
p960
I1839
sS'alone '
p961
I600
sS'terrorism '
p962
I628
sS'nuclear'
p963
I430
sS'open road'
p964
I1387
sS'typically'
p965
I71
sS'London,'
p966
I205
sS'shot'
p967
I369
sS'Political'
p968
I2235
sS'hopes'
p969
I1520
sS'Test'
p970
I2110
sS'asylum seekers '
p971
I1012
sS'geography'
p972
I643
sS'We'
p973
I155
sS'what,'
p974
I2317
sS'outside'
p975
I123
sS'crime'
p976
I1052
sS'seen '
p977
I561
sS'going'
p978
I2226
sS'try '
p979
I736
sS'Afghanistan,'
p980
I665
sS'get'
p981
I693
sS'Qaeda,'
p982
I969
sS'Courneuve'
p983
I1075
sS'expectation'
p984
I1913
sS'nearly'
p985
I382
sS'voted,'
p986
I2220
sS'prime'
p987
I342
sS'reveal'
p988
I1789
sS'joked'
p989
I318
sS'W '
p990
I2003
sS'harmthe'
p991
I857
sS'isnt'
p992
I2478
sS'morning'
p993
I2092
sS'worries'
p994
I2168
sS'PM'
p995
I78
sS'Twitter'
p996
I1689
sS'husband'
p997
I2380
sS'ballroom'
p998
I1955
sS'meantime,'
p999
I1205
sS'seat'
p1000
I452
sS'elected'
p1001
I405
sS'disasters,'
p1002
I892
sS'concern'
p1003
I1406
sS'registering'
p1004
I1042
sS'That'
p1005
I866
sS'federal'
p1006
I1399
sS'behind'
p1007
I458
sS'Tattered'
p1008
I955
sS'marks'
p1009
I1819
sS'Thai'
p1010
I1544
sS'reading'
p1011
I162
sS'man,'
p1012
I778
sS'across'
p1013
I506
sS'doing '
p1014
I1168
sS'Warminster'
p1015
I2307
sS'headquarters "For'
p1016
I1924
sS'Democrats,'
p1017
I1648
sS'Each'
p1018
I610
sS'comeback'
p1019
I1739
sS'cities'
p1020
I640
sS'come'
p1021
I457
sS'undermine'
p1022
I1137
sS'many'
p1023
I208
sS'region'
p1024
I1290
sS'according'
p1025
I498
sS'somewhere'
p1026
I2013
sS'machete,'
p1027
I827
sS'way,'
p1028
I1182
sS'senator'
p1029
I347
sS'way '
p1030
I1240
sS'nearby'
p1031
I2374
sS'duty'
p1032
I2202
sS'among'
p1033
I1281
sS'Brigode,'
p1034
I2462
sS'color'
p1035
I1402
sS'dispatch'
p1036
I1380
sS'article'
p1037
I2500
sS'radicalized'
p1038
I1023
sS'Midwest'
p1039
I1907
sS'considers'
p1040
I94
sS'boat'
p1041
I928
sS'unusual'
p1042
I976
sS'migrants,'
p1043
I546
sS'migrants '
p1044
I945
sS'But'
p1045
I223
sS'fleeing'
p1046
I568
sS'six year'
p1047
I441
sS'poll,'
p1048
I716
sS'Schools'
p1049
I54
sS'helicopter'
p1050
I1539
sS'borders'
p1051
I1037
sS'direction'
p1052
I1850
sS'mocking'
p1053
I1543
sS'minister'
p1054
I235
sS'stems'
p1055
I649
sS'afterward,'
p1056
I227
sS'takers,'
p1057
I1245
sS'camps '
p1058
I1416
sS'former'
p1059
I1754
sS'border)'
p1060
I863
sS'border,'
p1061
I1345
sS'border '
p1062
I1062
sS'polls'
p1063
I384
sS'Reagan'
p1064
I2009
sS'premature'
p1065
I210
sS'recapture '
p1066
I1734
sS'cast'
p1067
I2023
sS'overcome'
p1068
I1866
sS'policies'
p1069
I275
sS'Open'
p1070
I11
sS'crowded,'
p1071
I2182
sS'siege,'
p1072
I1
sS'reignited'
p1073
I653
sS'quiet'
p1074
I1717
sS'good'
p1075
I1113
sS'pileup'
p1076
I38
sS'northward'
p1077
I1265
sS'pay'
p1078
I874
sS'figuring'
p1079
I2241
sS'Silverlake'
p1080
I2400
sS'Sixty'
p1081
I810
sS'Carol'
p1082
I2073
sS're election'
p1083
I1815
sS"close'"
p1084
I1514
sS'week'
p1085
I51
sS'acrid,'
p1086
I32
sS'I'
p1087
I126
sS'Colorado,'
p1088
I416
sS'McCain'
p1089
I1667
sS'II'
p1090
I598
sS'running'
p1091
I260
sS'Iron'
p1092
I605
sS'present day'
p1093
I525
sS'events,'
p1094
I1310
sS'vowed'
p1095
I1891
sS'largely'
p1096
I214
sS'charges'
p1097
I1120
sS'vacant'
p1098
I1594
sS'It'
p1099
I1207
sS'TV'
p1100
I1992
sS'Coopers'
p1101
I1420
sS'without'
p1102
I553
sS'Im'
p1103
I2192
sS'relief'
p1104
I2456
sS'In'
p1105
I701
sS'inability'
p1106
I1490
sS'Nazi'
p1107
I1127
sS'Germany,'
p1108
I1010
sS'Rep '
p1109
I299
sS'followed,'
p1110
I497
sS'United'
p1111
I571
sS'Pa ;'
p1112
I2508
sS'money'
p1113
I389
sS'city If'
p1114
I40
sS'21st century'
p1115
I582
sS'sweeping'
p1116
I1936
sS'tough talking'
p1117
I1901
sS'speed'
p1118
I615
sS'captured'
p1119
I1214
sS'homeland,'
p1120
I949
sS'death'
p1121
I1597
sS'Towell,'
p1122
I1334
sS'briefings'
p1123
I436
sS'seems'
p1124
I1019
sS'lets'
p1125
I2497
sS'interested'
p1126
I1273
sS'Getty'
p1127
I186
sS'poised'
p1128
I1461
sS'unify'
p1129
I1892
sS'Terrifying '
p1130
I805
sS'Camp'
p1131
I1421
sS'early'
p1132
I2091
sS'()'
p1133
I1882
sS'groups '
p1134
I1830
sS'world'
p1135
I1199
sS'accepted'
p1136
I986
sS'boats,'
p1137
I878
sS'meat'
p1138
I1186
sS'giddiness,'
p1139
I268
sS'large scale'
p1140
I889
sS'collective'
p1141
I1210
sS'buddies'
p1142
I1709
sS'churn,'
p1143
I1392
sS'chamber'
p1144
I1570
sS'benefit'
p1145
I2057
sS'either'
p1146
I2274
sS'served'
p1147
I2012
sS'reduced'
p1148
I638
sS'Newton'
p1149
I2362
sS'Pinterest'
p1150
I1690
sS'West'
p1151
I961
sS'Mark'
p1152
I1296
sS'New'
p1153
I143
sS'Gypsies,'
p1154
I1066
sS'mood'
p1155
I2447
sS'confirm'
p1156
I1858
sS'legal'
p1157
I858
sS'conservative'
p1158
I1508
sS'Southeast'
p1159
I988
sS'exit'
p1160
I759
sS'decades Ever'
p1161
I2035
sS'violations,'
p1162
I2263
sS'ethos'
p1163
I1388
sS'2010,'
p1164
I453
sS'felt'
p1165
I127
sS'business'
p1166
I401
sS'intimate'
p1167
I1279
sS'populists'
p1168
I1091
sS'equivalent'
p1169
I102
sS'Photos)'
p1170
I592
sS'Queens '
p1171
I2493
sS'foghorns '
p1172
I635
sS'leadership'
p1173
I1842
sS'central'
p1174
I1258
sS'violence'
p1175
I1348
sS'out '
p1176
I29
sS'stand'
p1177
I2207
sS'waded'
p1178
I481
sS'Images'
p1179
I187
sS'Robert'
p1180
I2381
sS'quietly'
p1181
I1492
sS'Yes,'
p1182
I2118
sS'burning'
p1183
I216
sS'No'
p1184
I926
sS'whites'
p1185
I1825
sS'Bulls   ,'
p1186
I1115
sS'morning '
p1187
I2125
sS'tractor '
p1188
I707
sS'rising'
p1189
I1100
sS'apologize'
p1190
I1542
sS'Magnum'
p1191
I469
sS'shantytown'
p1192
I1073
sS'breath'
p1193
I2495
sS'area'
p1194
I940
sS'strip'
p1195
I1877
sS'start'
p1196
I1008
sS'2400 '
p1197
I1204
sS'low'
p1198
I528
sS'lot'
p1199
I313
sS'Berean'
p1200
I2359
sS'Wilfredo'
p1201
I1816
sS'Obama'
p1202
I2238
sS'media'
p1203
I2427
sS'throat burning,'
p1204
I34
sS'you,'
p1205
I2476
sS'continents'
p1206
I1138
sS'enough'
p1207
I1865
sS'Duckworth'
p1208
I1529
sS'congresswoman'
p1209
I1527
sS'land '
p1210
I931
sS'survived'
p1211
I1782
sS'white,'
p1212
I21
sS'another '
p1213
I873
sS"'These"
p1214
I1626
sS'happening'
p1215
I2347
sS'fraud'
p1216
I2248
sS'culture,'
p1217
I1149
sS'House'
p1218
I1014
sS'emissions'
p1219
I215
sS'politically'
p1220
I2019
sS'connect'
p1221
I2042
sS'strongly'
p1222
I1662
sS'Charles'
p1223
I1693
sS'citizenship'
p1224
I2115
sS'orderly,'
p1225
I2136
sS'Daadaab,'
p1226
I1433
sS'al'
p1227
I968
sS'fellow'
p1228
I934
sS'Mexicos'
p1229
I1344
sS'hasnt'
p1230
I1729
sS'Garland'
p1231
I1590
sS'Read'
p1232
I1516
sS'deserve'
p1233
I2056
sS'cleanup'
p1234
I409
sS'call '
p1235
I1796
sS'concerned Its'
p1236
I2315
sS'really'
p1237
I2443
sS'pollutants'
p1238
I67
sS'disgraceful'
p1239
I1414
sS'poor'
p1240
I1534
sS'Great'
p1241
I203
sS'Alex'
p1242
I590
sS'planet '
p1243
I507
sS'Vladimir'
p1244
I2333
sS'separate'
p1245
I517
sS'dwarfing'
p1246
I800
sS'important'
p1247
I2129
sS'vocally'
p1248
I1845
sS'CNN'
p1249
I2438
sS'pool'
p1250
I729
sS'building'
p1251
I181
sS'remote'
p1252
I1289
sS'calls'
p1253
I813
sS'Ayotte,'
p1254
I1810
sS'laborers,'
p1255
I1325
sS'1970,'
p1256
I2181
sS'mass'
p1257
I2373
sS'victory '
p1258
I379
sS'original'
p1259
I1200
sS'Analysts'
p1260
I690
sS'Canada'
p1261
I1456
sS'represent'
p1262
I1147
sS'forget'
p1263
I1142
sS'caused'
p1264
I207
sS'founded'
p1265
I1208
sS'sunk'
p1266
I555
sS'2 5'
p1267
I101
sS'(if'
p1268
I861
sS'Ga '
p1269
I2364
sS'religious'
p1270
I1356
sS'children'
p1271
I7
sS'referring'
p1272
I320
sS'pledged'
p1273
I1054
sS'spirit'
p1274
I1879
sS'to'
p1275
I902
sS'dirty'
p1276
I4
sS'smile'
p1277
I2081
sS'uptick'
p1278
I224
sS'woman'
p1279
I1070
sS'returned'
p1280
I1194
sS'returning'
p1281
I1331
sS'far'
p1282
I1548
sS'government '
p1283
I1622
sS'1,500'
p1284
I1005
sS'focus'
p1285
I1983
sS'Still,'
p1286
I344
sS'conscience '
p1287
I912
sS'fall'
p1288
I601
sS"I'm"
p1289
I1927
sS'Obamas'
p1290
I1586
sS'eye stinging'
p1291
I33
sS'Christian,'
p1292
I1151
sS'17th'
p1293
I1482
sS'identities '
p1294
I1379
sS're elected'
p1295
I294
sS'list'
p1296
I254
sS'constriction But'
p1297
I271
sS'war torn'
p1298
I1002
sS'small'
p1299
I400
sS'20th'
p1300
I741
sS'things,'
p1301
I2472
sS'expectations,'
p1302
I1311
sS'neighborhood'
p1303
I2076
sS'resettles'
p1304
I944
sS'range,'
p1305
I2211
sS'past'
p1306
I41
sS'Department'
p1307
I2258
sS'Only'
p1308
I1567
sS'lawyer'
p1309
I2434
sS'pass'
p1310
I2114
sS'residue'
p1311
I2171
sS'Latin'
p1312
I660
sS'Moroccans,'
p1313
I1123
sS'sun'
p1314
I22
sS'sum'
p1315
I1449
sS'Liberties'
p1316
I1757
sS'face Around'
p1317
I2082
sS'scientists'
p1318
I196
sS'Cape'
p1319
I539
sS'public'
p1320
I229
sS'movement'
p1321
I548
sS'borders?'
p1322
I685
sS'intimidator Confidence'
p1323
I2385
sS'outgoing'
p1324
I1599
sS'full'
p1325
I440
sS'Charlie'
p1326
I460
sS"nation's"
p1327
I1904
sS'hours'
p1328
I1568
sS'rigged'
p1329
I2316
sS'beacon'
p1330
I1001
sS'80 year old'
p1331
I1665
sS'Russ'
p1332
I1649
sS'steamships'
p1333
I744
sS'"blue'
p1334
I1945
sS'search'
p1335
I200
sS'colored'
p1336
I1385
sS'ahead'
p1337
I2145
sS'extraordinary'
p1338
I1899
sS'losses'
p1339
I1503
sS'experience'
p1340
I1126
sS'rocky'
p1341
I1976
sS'2013 (Photo'
p1342
I1076
sS'Bagh,'
p1343
I1295
sS'arent'
p1344
I882
sS'90%'
p1345
I1393
sS'responded,'
p1346
I175
sS'45 year old'
p1347
I346
sS'followed'
p1348
I511
sS'family'
p1349
I110
sS'2013,'
p1350
I820
sS'Swedens'
p1351
I1107
sS'America,'
p1352
I973
sS'backed'
p1353
I1898
sS'indoors'
p1354
I157
sS'commonalities'
p1355
I1276
sS'America '
p1356
I532
sS'select'
p1357
I1580
sS'Europe'
p1358
I520
sS'Ahuja,'
p1359
I136
sS'eye'
p1360
I2459
sS'composure'
p1361
I1854
sS'distinct'
p1362
I689
sS'two'
p1363
I104
sS'Congress,'
p1364
I1600
sS'Libya?'
p1365
I679
sS'comparing'
p1366
I1124
sS'themselves,'
p1367
I1454
sS'taken'
p1368
I1004
sS'debate,'
p1369
I446
sS'branded'
p1370
I1999
sS'markets'
p1371
I1951
sS'ahead,'
p1372
I1382
sS'Erick'
p1373
I2062
sS'Kennedy'
p1374
I936
sS'sad,'
p1375
I1413
sS'company'
p1376
I2492
sS'globe '
p1377
I545
sS'Americas'
p1378
I1036
sS'Harish'
p1379
I118
sS'landed'
p1380
I580
sS'So'
p1381
I1190
sS'particular'
p1382
I1909
sS'voters '
p1383
I2378
sS'Sweden '
p1384
I1103
sS'producing'
p1385
I1233
sS'Atlanta'
p1386
I2504
sS'Government,'
p1387
I938
sS'Senate,'
p1388
I1578
sS'keeping'
p1389
I2457
sS'stingy,'
p1390
I1085
sS'hour'
p1391
I1793
sS'Senate '
p1392
I1615
sS'Australia) '
p1393
I1096
sS'projections '
p1394
I361
sS'Russia,'
p1395
I526
sS'Your'
p1396
I2111
sS'history'
p1397
I1985
sS'stubborn'
p1398
I1685
sS'impacts'
p1399
I908
sS'lives'
p1400
I1975
sS'days'
p1401
I58
sS'states'
p1402
I1732
sS'pushed'
p1403
I611
sS'Speaker'
p1404
I1966
sS'numbers'
p1405
I806
sS'plan '
p1406
I1089
sS'sense'
p1407
I2162
sS'exclude'
p1408
I888
sS'backlash,'
p1409
I621
sS'firmly'
p1410
I1507
sS'huge'
p1411
I1178
sS'Parliament'
p1412
I1108
sS'court'
p1413
I1861
sS'plans'
p1414
I2266
sS'plant'
p1415
I248
sS'shouldnt'
p1416
I1141
sS'rapists,'
p1417
I1049
sS'not) '
p1418
I865
sS'tries'
p1419
I1826
sS'Continue'
p1420
I161
sS'director'
p1421
I1756
sS'coming'
p1422
I1143
sS'Kelly'
p1423
I1809
sS'Syria'
p1424
I1261
sS'huddled'
p1425
I739
sS'response'
p1426
I141
sS'a'
p1427
I176
sS'Mexico'
p1428
I1047
sS'us That'
p1429
I2449
sS'France,'
p1430
I1101
sS'coal'
p1431
I217
sS'Democrats'
p1432
I387
sS'threatens'
p1433
I1133
sS'playing'
p1434
I1762
sS'riling'
p1435
I2428
sS'help'
p1436
I377
sS'49%'
p1437
I1801
sS'held'
p1438
I1577
sS'"incredible'
p1439
I1968
sS'scientist'
p1440
I2230
sS'signs'
p1441
I2052
sS'persecution,'
p1442
I570
sS'wrote,'
p1443
I919
sS'its'
p1444
I691
sS'Texas'
p1445
I829
sS'Marco'
p1446
I282
sS'measures,'
p1447
I240
sS'symptoms'
p1448
I265
sS'2,'
p1449
I1028
sS'Library,'
p1450
I2420
sS'alter'
p1451
I1853
sS'it,'
p1452
I152
sS'someone'
p1453
I129
sS'groping'
p1454
I1680
sS'little '
p1455
I978
sS'googletag cmd push(function'
p1456
I1881
sS'it '
p1457
I1161
sS'anticipated'
p1458
I2144
sS'communities'
p1459
I1308
sS'speculate'
p1460
I345
sS'avert,'
p1461
I903
sS'all,'
p1462
I1722
sS'bless'
p1463
I1963
sS'1am'
p1464
I1798
sS'found'
p1465
I527
sS'shocking'
p1466
I228
sS'heavy'
p1467
I113
sS'stateonly,'
p1468
I831
sS'vote Concerns'
p1469
I2243
sS'Afghans'
p1470
I718
sS'//googletag pubads() refresh([gptAdSlot["div gpt 300x250_2"]])'
p1471
I1885
sS'Built'
p1472
I1437
sS'Berinsky,'
p1473
I2229
sS'Murphy,'
p1474
I301
sS'hard'
p1475
I1874
sS'fixture'
p1476
I2033
sS'idea'
p1477
I947
sS'house,'
p1478
I125
sS'energy,'
p1479
I2482
sS'scariest,'
p1480
I2404
sS'Washington,'
p1481
I1835
sS'Washington '
p1482
I2065
sS'Township,'
p1483
I2308
sS'insurance'
p1484
I2186
sS'More'
p1485
I495
sS'taunted'
p1486
I334
sS'missed'
p1487
I433
sS'unnatural'
p1488
I172
sS'Boston '
p1489
I2514
sS'since'
p1490
I1007
sS'research'
p1491
I758
sS'Therell'
p1492
I2465
sS'Construction'
p1493
I179
sS'health'
p1494
I190
sS'Year '
p1495
I1333
sS'Arizona,'
p1496
I1664
sS'houses'
p1497
I1440
sS'members'
p1498
I1213
sS'put'
p1499
I276
sS'working class'
p1500
I1824
sS'definition'
p1501
I859
sS'bragged'
p1502
I1679
sS'service'
p1503
I2034
sS'People'
p1504
I2100
sS'needing'
p1505
I1726
sS'rigged In'
p1506
I2326
sS'p m '
p1507
I2071
sS'threat'
p1508
I627
sS'lawsuits'
p1509
I2272
sS'dont'
p1510
I1165
sS'Mendoza'
p1511
I2501
sS'feel'
p1512
I2430
sS'radical'
p1513
I1574
sS'number'
p1514
I1179
sS'Indias'
p1515
I92
sS'nativist'
p1516
I1111
sS'Indian'
p1517
I69
sS'story'
p1518
I164
sS'leading'
p1519
I1029
sS'least'
p1520
I735
sS'expensive '
p1521
I394
sS'other,'
p1522
I1959
sS'flimsy'
p1523
I923
sS'Larry'
p1524
I971
sS'identity'
p1525
I2282
sS'erupted'
p1526
I652
sS'majority'
p1527
I1857
sS'Texas,'
p1528
I2005
sS'lease'
p1529
I2221
sS'Paolo'
p1530
I713
sS'passed'
p1531
I1157
sS'relationship'
p1532
I1977
sS'trapped'
p1533
I1358
sS'mendoza '
p1534
I2516
sS'hotel'
p1535
I1921
sS'immediate'
p1536
I2169
sS'India,'
p1537
I1423
sS'part'
p1538
I408
sS'2012 '
p1539
I407
sS'forward,'
p1540
I2477
sS'believe'
p1541
I1727
sS'tacking'
p1542
I1246
sS'kind'
p1543
I1987
sS'grew'
p1544
I1144
sS'machines,'
p1545
I2292
sS'gotten'
p1546
I2239
sS'[Updated'
p1547
I2069
sS'grim '
p1548
I1479
sS'minimize'
p1549
I904
sS'familys'
p1550
I170
sS'Lee/AP'
p1551
I1817
sS'booth'
p1552
I2140
sS'deciding'
p1553
I1612
sS'Predictions'
p1554
I352
sS'nominee'
p1555
I1684
sS'Tyagi/European'
p1556
I119
sS'well'
p1557
I798
sS'season '
p1558
I2173
sS'Cruz,'
p1559
I2098
sS'stops Across'
p1560
I2479
sS'roughly'
p1561
I44
sS'Late'
p1562
I1673
sS'measure,'
p1563
I61
sS'alike'
p1564
I2269
sS'concentration'
p1565
I66
sS'Carolina,'
p1566
I1746
sS'Carolina '
p1567
I1942
sS'Virginia'
p1568
I2350
sS'Illinoisans'
p1569
I1718
sS'also'
p1570
I432
sS'build'
p1571
I1058
sS'genetically'
p1572
I475
sS'populous'
p1573
I1455
sS'With'
p1574
I751
sS'understand,'
p1575
I914
sS'play'
p1576
I1812
sS'experienced'
p1577
I1988
sS'[in'
p1578
I2217
sS'popular'
p1579
I2050
sS'relied'
p1580
I2038
sS'staffers'
p1581
I2261
sS'rigged,'
p1582
I2299
sS'experiences'
p1583
I140
sS'plan'
p1584
I760
sS'fight '
p1585
I1625
sS'The'
p1586
I30
sS'rigged '
p1587
I2323
sS'soared'
p1588
I87
sS'conflicts The'
p1589
I2257
sS'windows'
p1590
I158
sS'clear'
p1591
I644
sS'shortly'
p1592
I1797
sS'Id'
p1593
I2384
sS'night '
p1594
I1767
sS'Ryan,'
p1595
I1833
sS'If'
p1596
I1367
sS'construction,'
p1597
I244
sS'Ohio,'
p1598
I1941
sS'particularly'
p1599
I2030
sS'blended'
p1600
I655
sS'Serbia,'
p1601
I1266
sS'freight'
p1602
I745
sS'well publicized'
p1603
I2297
sS'results Maybe'
p1604
I2414
sS'scooter'
p1605
I112
sS'Muslim'
p1606
I1021
sS'French'
p1607
I1072
sS'technologically'
p1608
I749
sS'failed'
p1609
I289
sS'circle'
p1610
I24
sS'Ross,'
p1611
I1753
sS"'rigging'On"
p1612
I2244
sS'Bedford'
p1613
I2189
sS'executive'
p1614
I2187
sS'dust'
p1615
I114
sS'dependent'
p1616
I743
sS'Republicans '
p1617
I1663
sS'ninth'
p1618
I1592
sS'closely'
p1619
I1633
sS'During'
p1620
I965
sS'spikes'
p1621
I1188
sS'McGinty'
p1622
I1784
sS'1990s '
p1623
I609
sS'common'
p1624
I502
sS'Hell'
p1625
I1255
sS'battlegrounds'
p1626
I1938
sS'wrote'
p1627
I1485
sS'set'
p1628
I411
sS'For'
p1629
I1227
sS'intelligence'
p1630
I435
sS'Fox'
p1631
I355
sS'tended'
p1632
I2290
sS'plausible'
p1633
I2225
sS'see'
p1634
I147
sS'defense'
p1635
I1763
sS'Shire'
p1636
I918
sS'migration'
p1637
I1221
sS'sea'
p1638
I577
sS'close'
p1639
I1803
sS'1947 '
p1640
I1432
sS'feared'
p1641
I1135
sS'currently'
p1642
I1834
sS'Park'
p1643
I2085
sS'won'
p1644
I451
sS'years,'
p1645
I551
sS'woe'
p1646
I699
sS'burned'
p1647
I131
sS'conditions'
p1648
I273
sS'pictured'
p1649
I586
sS'available'
p1650
I499
sS'recently'
p1651
I1109
sS'historical'
p1652
I201
sS'chamber,'
p1653
I1609
sS'Candler'
p1654
I2436
sS'chamber '
p1655
I178
sS'attention'
p1656
I1172
sS'Florida'
p1657
I280
sS'U S '
p1658
I981
sS'days,'
p1659
I220
sS'politics,'
p1660
I2103
sS'wait The'
p1661
I2105
sS'Thats'
p1662
I721
sS'last'
p1663
I315
sS'7,000'
p1664
I1427
sS'barely'
p1665
I27
sS'tweeted'
p1666
I2061
sS'45%,'
p1667
I1659
sS'became'
p1668
I1785
sS'Todd'
p1669
I1740
sS'spirit,'
p1670
I1277
sS'whole'
p1671
I639
sS'millions'
p1672
I375
sS'point'
p1673
I381
sS'demographic'
p1674
I1829
sS'pleasures '
p1675
I1496
sS'address'
p1676
I905
sS'race,'
p1677
I1804
sS'whatever'
p1678
I1849
sS'likes'
p1679
I1309
sS'shutdown'
p1680
I1035
sS'village'
p1681
I1425
sS'along'
p1682
I1060
sS'expensive'
p1683
I1786
sS'ranks '
p1684
I1687
sS'described'
p1685
I169
sS'there '
p1686
I1247
sS'appears'
p1687
I1847
sS'Most'
p1688
I661
sS'secret'
p1689
I1326
sS'California'
p1690
I826
sS'rubble '
p1691
I641
sS'election '
p1692
I2288
sS'lived'
p1693
I2180
sS'packs'
p1694
I105
sS'Scalias'
p1695
I1596
sS'like,'
p1696
I1183
sS'Despite'
p1697
I2409
sS'gas'
p1698
I177
sS'nominations '
p1699
I1873
sS'gap'
p1700
I383
sS'understand'
p1701
I189
sS'YORK'
p1702
I1888
sS'deport'
p1703
I1055
sS'advocating'
p1704
I1121
sS'remains '
p1705
I1191
sS'opportunity '
p1706
I1322
sS'Majoli,'
p1707
I1314
sS'unprecedented'
p1708
I60
sS'College'
p1709
I2325
sS'mid century,'
p1710
I1391
sS'Angeles;'
p1711
I2502
sS'Church'
p1712
I2361
sS'theres'
p1713
I614
sS'Arevalo'
p1714
I2484
sS'City'
p1715
I2340
sS'Italy'
p1716
I1459
sS'hoping'
p1717
I2487
sS'century'
p1718
I1483
sS'France Presse'
p1719
I185
sS'supporters,'
p1720
I319
sS'husband,'
p1721
I2353
sS'bellowed'
p1722
I1962
sS'rhetoric '
p1723
I809
sS'ready'
p1724
I341
sS'fathering'
p1725
I698
sS'2015,'
p1726
I578
sS'America The'
p1727
I1900
sS'around'
p1728
I995
sS'Weve'
p1729
I593
sS're election,'
p1730
I1637
sS'life sapping'
p1731
I869
sS'Jordan,'
p1732
I1306
sS'conflict'
p1733
I1321
sS'sliver'
p1734
I871
sS'Saman'
p1735
I1268
sS'About'
p1736
I471
sS'temporary'
p1737
I1032
sS'moment'
p1738
I1699
sS'arrived'
p1739
I576
sS'simmered,'
p1740
I1466
sS'Outside,'
p1741
I19
sS'{'
p1742
I1883
sS'recent'
p1743
I550
sS'stateless'
p1744
I566
sS'lower'
p1745
I73
sS'people '
p1746
I722
sS'older'
p1747
I8
sS'people,'
p1748
I1439
sS'alleging'
p1749
I2273
sS'changed '
p1750
I222
sS'spent'
p1751
I1840
sS'county'
p1752
I2309
sS'person'
p1753
I474
sS'entry'
p1754
I363
sS'stem'
p1755
I1488
sS'Nelson'
p1756
I2483
sS'languish'
p1757
I1419
sS'dangerous,'
p1758
I426
sS'mood,'
p1759
I2446
sS'using'
p1760
I454
sS'lives,'
p1761
I565
sS'unto'
p1762
I1453
sS'Being '
p1763
I1343
sS'Hassan,'
p1764
I1808
sS'Hampshires'
p1765
I1805
sS'exclusively'
p1766
I2039
sS"respectively Trump's"
p1767
I1948
sS'source'
p1768
I1327
sS'parents'
p1769
I2126
sS'questioned'
p1770
I437
sS'Arbogast/AP'
p1771
I1695
sS'Reed,'
p1772
I2357
sS'ballots'
p1773
I2415
sS'remaining'
p1774
I1759
sS'On'
p1775
I1517
sS'victims'
p1776
I1351
sS'doors'
p1777
I2148
sS'emergency'
p1778
I239
sS'big'
p1779
I636
sS'couple'
p1780
I1025
sS'matters'
p1781
I480
sS'Or'
p1782
I675
sS'Kenya,'
p1783
I1434
sS'defied'
p1784
I1911
sS'Pakistan'
p1785
I1428
sS'pithy'
p1786
I1223
sS'success'
p1787
I1846
sS'retake'
p1788
I1498
sS'Hampshire,'
p1789
I1778
sS'reader,'
p1790
I166
sS'2020,'
p1791
I1643
sS'Find'
p1792
I2117
sS'amicably'
p1793
I2102
sS'11pm'
p1794
I1655
sS'often'
p1795
I1241
sS'creation'
p1796
I939
sS'Fears'
p1797
I2368
sS'back'
p1798
I198
sS'impeach'
p1799
I2467
sS'scared,'
p1800
I567
sS'global'
p1801
I795
sS'economic'
p1802
I624
sS'sight'
p1803
I2106
sS'hurt His'
p1804
I2020
sS'pale'
p1805
I25
sS'delivered'
p1806
I1506
sS'scale'
p1807
I794
sS'women,'
p1808
I1681
sS'jewelry'
p1809
I2463
sS'400,000'
p1810
I579
sS'per'
p1811
I82
sS'Latino '
p1812
I1022
sS'religion'
p1813
I1146
sS'Massachusetts'
p1814
I2231
sS'Yemen '
p1815
I487
sS'run'
p1816
I564
sS'Look'
p1817
I2122
sS'Bill'
p1818
I2006
sS'Antonin'
p1819
I1595
sS'Antonio'
p1820
I768
sS'father,'
p1821
I413
sS'political'
p1822
I1914
sS'published '
p1823
I2313
sS'holding'
p1824
I370
sS'shine'
p1825
I1467
sS'anything'
p1826
I801
sS'Pellegrin/Magnum'
p1827
I714
sS'Yemeni'
p1828
I672
sS'renewed Expectations'
p1829
I2223
sS'Dorothy'
p1830
I2183
sS'congressman'
p1831
I303
sS'pollution'
p1832
I49
sS'12,000'
p1833
I209
sS'Kaden,'
p1834
I2199
sS'within'
p1835
I17
sS'awaited'
p1836
I1364
sS'Everything'
p1837
I1131
sS'Cambridge '
p1838
I2234
sS'frames'
p1839
I1317
sS'NEW'
p1840
I1887
sS'modicum'
p1841
I2455
sS'question'
p1842
I1818
sS'long'
p1843
I2205
sS'Anthony'
p1844
I2319
sS'Young,'
p1845
I1741
sS'crackdown'
p1846
I710
sS'Turkey '
p1847
I521
sS'niece,'
p1848
I2198
sS'willing,"'
p1849
I449
sS'opponent'
p1850
I1686
sS'mountains'
p1851
I1359
sS'Baptist'
p1852
I2360
sS'fraud Yet'
p1853
I2275
sS'specialty'
p1854
I1220
sS'hoped'
p1855
I1733
sS'repeatedly'
p1856
I309
sS'filed'
p1857
I2270
sS'Switzerland'
p1858
I1098
sS'together "While'
p1859
I1984
sS'line'
p1860
I920
sS'cooperation '
p1861
I1880
sS'deployed'
p1862
I2260
sS'Ms '
p1863
I2097
sS'Bell'
p1864
I2411
sS'ramblers'
p1865
I1243
sS'Africa'
p1866
I504
sS'1999,'
p1867
I702
sS'us'
p1868
I477
sS'par'
p1869
I1458
sS'mobile'
p1870
I747
sS'line Still,'
p1871
I2296
sS'called'
p1872
I77
sS'ordered'
p1873
I55
sS'nationalist'
p1874
I2264
sS'Union '
p1875
I1758
sS'defined'
p1876
I1742
sS'side '
p1877
I494
sS'To'
p1878
I188
sS'Outside'
p1879
I372
sS'changes,'
p1880
I1575
sS'Manhattan'
p1881
I1920
sS'problem '
p1882
I1468
sS'Map'
p1883
I353
sS'Commissioner'
p1884
I766
sS'tentative'
p1885
I1800
sS'amounts'
p1886
I1234
sS'dashed'
p1887
I1519
sS'American led'
p1888
I966
sS'Masto'
p1889
I1773
sS'politicians'
p1890
I1164
sS'definitely'
p1891
I2314
sS'East,'
p1892
I510
sS'Asia,'
p1893
I513
sS'East '
p1894
I1354
sS'scurrying'
p1895
I505
sS'themselves '
p1896
I1730
sS'worldwide,'
p1897
I1404
sS'problems'
p1898
I1487
sS'Two thirds'
p1899
I1417
sS'helping'
p1900
I1474
sS'AP'
p1901
I1769
sS'650,000'
p1902
I983
sS'concerns '
p1903
I2337
sS'2014,'
p1904
I842
sS'land'
p1905
I1374
sS'Warsan'
p1906
I917
sS'night,'
p1907
I1501
sS'age'
p1908
I2210
sS'required'
p1909
I274
sS'walked'
p1910
I535
sS'Its'
p1911
I823
sS'cities '
p1912
I1293
sS'As'
p1913
I629
sS'At'
p1914
I1197
sS'rallies'
p1915
I2041
sS'international'
p1916
I941
sS'intentional'
p1917
I838
sS'happy,'
p1918
I2193
sS'CPA'
p1919
I415
sS'rules,'
p1920
I1870
sS'undercount '
p1921
I840
sS'votes '
p1922
I1868
sS'gang'
p1923
I757
sS'broader'
p1924
I2336
sS'go'
p1925
I262
sS'shrugged'
p1926
I47
sS'15,000'
p1927
I542
sS'seemed'
p1928
I1671
sS'outperforming'
p1929
I1551
sS'excludes'
p1930
I867
sS'Tuesday,'
p1931
I2177
sS'embellishing'
p1932
I397
sS'young'
p1933
I1105
sS'Tuesday '
p1934
I295
sS'Albania,'
p1935
I706
sS'agencys'
p1936
I773
sS'"This'
p1937
I1980
sS'crisis '
p1938
I53
sS'crisis,'
p1939
I835
sS'include'
p1940
I846
sS'sent'
p1941
I2254
sS'ingredient'
p1942
I1396
sS'Canadian'
p1943
I1336
sS'continues'
p1944
I1822
sS'wave'
p1945
I231
sS'result,'
p1946
I630
sS'migrants'
p1947
I575
sS'more,'
p1948
I1016
sS'continued'
p1949
I180
sS'Ive'
p1950
I2179
sS'entire'
p1951
I450
sS'fence,'
p1952
I1156
sS'help '
p1953
I1206
sS'experiencing'
p1954
I264
sS'defeats'
p1955
I1620
sS'fewer'
p1956
I1122
sS'process A'
p1957
I2302
sS'try'
p1958
I1706
sS'race'
p1959
I328
sS'polling'
p1960
I2077
sS'challenge'
p1961
I1668
sS'Arevalo,'
p1962
I2489
sS'Turkey'
p1963
I1262
sS'safe '
p1964
I95
sS'biased'
p1965
I2344
sS'licensed'
p1966
I414
sS'Croatia '
p1967
I1267
sS'State'
p1968
I1353
sS'video'
p1969
I1677
sS'traveling'
p1970
I524
sS'country,"'
p1971
I1930
sS'folk'
p1972
I1338
sS'that,'
p1973
I2410
sS'U N ,'
p1974
I1192
sS'power'
p1975
I247
sS'Johnson,'
p1976
I1657
sS'processThose'
p1977
I2386
sS'Johnson '
p1978
I1653
sS'expressed'
p1979
I2161
sS"man's"
p1980
I1489
sS'Now'
p1981
I1444
sS'waiting'
p1982
I2295
sS'capital'
p1983
I194
sS'America'
p1984
I537
sS'Former'
p1985
I1735
sS'shoreline'
p1986
I512
sS'gathered'
p1987
I1919
sS'pushing'
p1988
I1291
sS'Greek'
p1989
I1263
sS'poverty'
p1990
I870
sS'44,'
p1991
I1315
sS'safer'
p1992
I930
sS'great'
p1993
I1215
sS'Chinese'
p1994
I1324
sS'firm '
p1995
I420
sS'leaving'
p1996
I501
sS'defeat'
p1997
I1731
sS'residents'
p1998
I46
sS'makes'
p1999
I1375
sS'U N s'
p2000
I764
sS'thats'
p2001
I617
sS'showing'
p2002
I1557
sS'writer'
p2003
I2066
sS'win'
p2004
I1697
sS'homes '
p2005
I613
sS'Kirk'
p2006
I1532
sS'addressed'
p2007
I1935
sS'homes?'
p2008
I811
sS'administration'
p2009
I1972
sS'Norlund'
p2010
I2422
sS'five day'
p2011
I242
sS'anger '
p2012
I2473
sS'process'
p2013
I2343
sS'doubt'
p2014
I2058
sS'reflects'
p2015
I2444
sS'sort'
p2016
I1320
sS'popped'
p2017
I1442
sS"buckle'"
p2018
I1627
sS'musician'
p2019
I1339
sS'Wednesday'
p2020
I1766
sS'Daniel,'
p2021
I2433
sS'president,'
p2022
I326
sS'actual'
p2023
I2445
sS'Representatives,'
p2024
I1560
sS'women'
p2025
I1363
sS'high'
p2026
I99
sS'inexperience'
p2027
I2021
sS'ride'
p2028
I877
sS'Library'
p2029
I2401
sS'crossed'
p2030
I704
sS'Nevada'
p2031
I1775
sS'didnt'
p2032
I1723
sS'control'
p2033
I1608
sS'owners,'
p2034
I2219
sS'British Somali'
p2035
I915
sS'fit '
p2036
I1852
sS'rode'
p2037
I111
sS'Asians '
p2038
I989
sS'Roma,'
p2039
I1065
sS'something'
p2040
I975
sS'Godshall,'
p2041
I2320
sS'sought'
p2042
I306
sS'Party'
p2043
I456
sS'Mr '
p2044
I2349
sS'mix'
p2045
I2164
sS'class,'
p2046
I1407
sS'united'
p2047
I1917
sS'Horn '
p2048
I540
sS'says '
p2049
I2120
sS'sit'
p2050
I1491
sS'says,'
p2051
I1278
sS'class '
p2052
I887
sS'regions'
p2053
I1660
sS'figures '
p2054
I774
sS'line,'
p2055
I2152
sS'Moises'
p2056
I588
sS'figures,'
p2057
I884
sS'stop'
p2058
I2475
sS'British'
p2059
I1299
sS'concentrations'
p2060
I100
sS'presidents Some'
p2061
I1998
sS'Australia '
p2062
I516
sS'ethnic'
p2063
I711
sS'ties'
p2064
I1813
sS'worried'
p2065
I2383
sS'these,"'
p2066
I317
sS'rigging '
p2067
I2156
sS'counter'
p2068
I2142
sS'One'
p2069
I1104
sS'Nations '
p2070
I572
sS'Middle'
p2071
I509
sS'chief'
p2072
I234
sS'about '
p2073
I2417
sS'agenda'
p2074
I1973
sS'tamper'
p2075
I1160
sS'looking'
p2076
I197
sS'counted'
p2077
I883
sS'preparing'
p2078
I2321
sS'despite'
p2079
I385
sS'meter'
p2080
I84
sS'13,'
p2081
I2339
sS'produced'
p2082
I599
sS"Rubio's"
p2083
I362
sS'including'
p2084
I241
sS'unchecked'
p2085
I791
sS'Jonsson'
p2086
I2503
sS'speech '
p2087
I1957
sS'chosen'
p2088
I1925
sS'masses'
p2089
I740
sS'willing'
p2090
I2053
sS'Muslims '
p2091
I1038
sS'setting'
p2092
I1682
sS'world,'
p2093
I996
sS'Queens'
p2094
I2328
sS'crash'
p2095
I604
sS'greater'
p2096
I1405
sS'descendants'
p2097
I547
sS'commitment'
p2098
I443
sS'resolve'
p2099
I2256
sS'Adam'
p2100
I2228
sS'Kirk '
p2101
I1531
sS'philosopher,'
p2102
I1484
sS'flee'
p2103
I948
sS'fled'
p2104
I709
sS'presidential'
p2105
I292
sS'worlds'
p2106
I1464
sS'Saman,'
p2107
I1248
sS'warned'
p2108
I789
sS'slide'
p2109
I792
sS'weather'
p2110
I221
sS'70,000'
p2111
I472
sS'Arkansas'
p2112
I2007
sS'erratic'
p2113
I427
sS'exacerbated'
p2114
I626
sS'micrograms'
p2115
I81
sS'tents'
p2116
I957
sS'conflict '
p2117
I1222
sS'related'
p2118
I906
sS'Wendy'
p2119
I2461
sS'witness'
p2120
I2200
sS'Yazidis,'
p2121
I1355
sS'chill '
p2122
I2093
sS'voting Kaden'
p2123
I2203
sS'defend'
p2124
I1774
sS'day'
p2125
I1707
sS'time,'
p2126
I1153
sS'Nearly'
p2127
I562
sS'Bruinius'
p2128
I2510
sS'smog'
p2129
I31
sS'time '
p2130
I343
sS'announced'
p2131
I237
sS'This'
p2132
I466
sS'fleeting '
p2133
I1189
sS'completely'
p2134
I1148
sS'happens This'
p2135
I2499
sS'Ryan'
p2136
I1843
sS'conflicts'
p2137
I651
sS'Senator'
p2138
I1747
sS'reporters'
p2139
I2176
sS'additional'
p2140
I1381
sS'op ed,'
p2141
I1129
sS'route'
p2142
I1260
sS'hes'
p2143
I2406
sS'times'
p2144
I90
sS'public I'
p2145
I2429
sS'Others,'
p2146
I2096
sS'reverse,'
p2147
I1270
sS'hopeful The'
p2148
I2132
sS'powerful'
p2149
I1286
sS"Brooklyn's"
p2150
I2188
sS'owner'
p2151
I402
sS'reached'
p2152
I80
sS'buoyed'
p2153
I1523
sS'North'
p2154
I531
sS'election I'
p2155
I2460
sS'[whomever'
p2156
I2468
sS'data'
p2157
I841
sS'system'
p2158
I992
sS'wins,'
p2159
I2055
sS'1,000,'
p2160
I89
sS'enough,'
p2161
I1494
sS'Iraq'
p2162
I664
sS'final'
p2163
I1565
sS'sealed'
p2164
I1910
sS'(and,'
p2165
I1094
sS'way Its'
p2166
I2395
sS'doomed'
p2167
I1071
sS'environmental'
p2168
I232
sS'parents But'
p2169
I9
sS'Refugees,'
p2170
I767
sS'Democratic'
p2171
I1497
sS'Wisconsin,'
p2172
I1908
sS'1947,'
p2173
I1211
sS'possibly,'
p2174
I1163
sS'appealing'
p2175
I1823
sS'pot,'
p2176
I1398
sS'visited'
p2177
I2174
sS'Pat'
p2178
I1780
sS'Richard'
p2179
I1748
sS'half'
p2180
I832
sS'partnership'
p2181
I468
sS'Electoral'
p2182
I2324
sS'reassuring'
p2183
I62
sS'tide'
p2184
I529
sS'Other'
p2185
I1082
sS'need'
p2186
I1478
sS'facing'
p2187
I1719
sS'border'
p2188
I705
sS'linked'
p2189
I893
sS'viewed'
p2190
I52
sS'complete'
p2191
I1034
sS'people,"'
p2192
I1918
sS'After'
p2193
I979
sS'able'
p2194
I1579
sS'Photos'
p2195
I470
sS'concerns'
p2196
I2155
sS'expected,'
p2197
I1638
sS'Santa'
p2198
I2074
sS'fuels'
p2199
I2046
sS'clash'
p2200
I676
sS'eight'
p2201
I688
sS'future'
p2202
I1820
sS'her,'
p2203
I2083
sS'behavior,'
p2204
I2280
sS'consequences'
p2205
I191
sS'request'
p2206
I142
sS'face'
p2207
I1067
sS'High'
p2208
I765
sS'battle,'
p2209
I1875
sS'Donald'
p2210
I329
sS'Iraq,'
p2211
I1541
sS'painting'
p2212
I338
sS'fact'
p2213
I1415
sS'one '
p2214
I785
sS'word '
p2215
I804
sS'Paris'
p2216
I899
sS'supported'
p2217
I423
sS'one,'
p2218
I1764
sS'(center)'
p2219
I2352
sS'15 or so'
p2220
I650
sS'telling'
p2221
I2127
sS'fear'
p2222
I622
sS'droves'
p2223
I2293
sS'slow,'
p2224
I2138
sS'arrived,'
p2225
I2151
sS'trying'
p2226
I2
sS'based'
p2227
I946
sS'winner'
p2228
I2412
sS'Jill'
p2229
I932
sS'candidates'
p2230
I1989
sS'truck '
p2231
I1187
sS'Gass'
p2232
I2513
sS'thousands'
p2233
I681
sS'hope'
p2234
I872
sS'meant'
p2235
I921
sS'means'
p2236
I844
sS'beat'
p2237
I332
sS'familiar'
p2238
I663
sS'photography'
p2239
I1301
sS'leased'
p2240
I2216
sS'Pressphoto'
p2241
I120
sS'community'
p2242
I2423
sS'made'
p2243
I492
sS'codes '
p2244
I431
sS'embers'
p2245
I657
sS'2016 '
p2246
I1510
sS'humanely'
p2247
I943
sS'Italian'
p2248
I1316
sS'following'
p2249
I1502
sS'candidate,'
p2250
I1030
sS'hugged'
p2251
I1958
sS'calling'
p2252
I336
sS'Bengal,'
p2253
I1422
sS'stuff'
p2254
I2303
sS'dangerous'
p2255
I75
sS'control '
p2256
I1509
sS'generations'
p2257
I534
sS'Afghanistan'
p2258
I963
sS'"God'
p2259
I448
sS'Island '
p2260
I584
sS'immigrant'
p2261
I2332
sS'accused'
p2262
I1046
sS'cold'
p2263
I1080
sS'Wisconsin'
p2264
I1646
sS'clearing'
p2265
I825
sS'favor'
p2266
I1770
sS'state'
p2267
I1755
sS'generations '
p2268
I700
sS'Gallup'
p2269
I715
sS'closed'
p2270
I56
sS'tens'
p2271
I959
sS'Republican'
p2272
I291
sS'frustrated'
p2273
I2025
sS'Could'
p2274
I2113
sS'tent'
p2275
I1292
sS'explosive'
p2276
I1134
sS'persecutedhas'
p2277
I1003
sS'recorded,'
p2278
I818
sS'Sen '
p2279
I281
sS'Democrat'
p2280
I298
sS'Paul,'
p2281
I2306
sS'key'
p2282
I1546
sS'overhaul'
p2283
I990
sS'ideas '
p2284
I1313
sS'Maggie'
p2285
I1807
sS'career'
p2286
I779
sS'taking'
p2287
I1132
sS'migration,'
p2288
I1232
sS'figures'
p2289
I837
sS'Sea'
p2290
I485
sS'precedent '
p2291
I202
sS'safely'
p2292
I493
sS'otherwise'
p2293
I1701
sS'unclear'
p2294
I2286
sS'subtitle'
p2295
I1224
sS'assessment,'
p2296
I803
sS'Her'
p2297
I2379
sS'Hes'
p2298
I775
sS'wall'
p2299
I1059
sS'lungs House'
p2300
I1965
sS'migrant'
p2301
I647
sS'Los'
p2302
I2087
sS'together,'
p2303
I2498
sS'table'
p2304
I1097
sS'own '
p2305
I1721
sS'outsider'
p2306
I1995
sS'Pakistan (Photo'
p2307
I970
sS'discrimination'
p2308
I633
sS'choice,'
p2309
I1063
sS'home '
p2310
I1418
sS'poured'
p2311
I508
sS'ex governors'
p2312
I2001
sS'poet'
p2313
I916
sS'Finland,'
p2314
I1099
sS'suggested'
p2315
I2049
sS'then Gov '
p2316
I459
sS'Among'
p2317
I1350
sS'outside Levels'
p2318
I74
sS'Nations'
p2319
I686
sS'Credit'
p2320
I117
sS'tense'
p2321
I2450
sS'smoking'
p2322
I103
sS'an'
p2323
I790
sS'volunteer'
p2324
I2382
sS'And'
p2325
I730
sS'homes'
p2326
I70
sS'unlike'
p2327
I559
sS'intimidate'
p2328
I2377
sS'agreement,'
p2329
I900
sS'emotional'
p2330
I2170
sS'will'
p2331
I348
sS'stunning'
p2332
I1897
sS'encircled'
p2333
I544
sS'lived,'
p2334
I174
sS'will '
p2335
I954
sS'layer'
p2336
I213
sS'almost'
p2337
I1450
sS'thus'
p2338
I1378
sS'surprisingly'
p2339
I1555
sS'helped'
p2340
I2018
sS'tampered'
p2341
I2393
sS'claimed'
p2342
I1902
sS'You'
p2343
I913
sS'Bykowicz'
p2344
I2068
sS'contender '
p2345
I1672
sS'cross'
p2346
I862
sS'member'
p2347
I1106
sS'adverse'
p2348
I907
sS'northwest'
p2349
I1360
sS'incumbent'
p2350
I1636
sS'largest'
p2351
I1435
sS'Trump like'
p2352
I1090
sS'party'
p2353
I367
sS'gets'
p2354
I2469
sS'cubic'
p2355
I83
sS'lot,'
p2356
I2240
sS'classesbut'
p2357
I784
sS'throngs'
p2358
I612
sS'however,'
p2359
I2390
sS'warming'
p2360
I1470
sS'York;'
p2361
I2511
sS'center'
p2362
I2424
sS'Senate'
p2363
I364
sS'Julie'
p2364
I2067
sS'part,'
p2365
I974
sS'suspicious'
p2366
I2279
sS'latest'
p2367
I1225
sS'race '
p2368
I1790
sS'seconds '
p2369
I18
sS'less'
p2370
I393
sS'moments'
p2371
I1280
sS'Nigerians,'
p2372
I723
sS'test?'
p2373
I2116
sS'Sunday'
p2374
I236
sS'seats'
p2375
I1601
sS'widen'
p2376
I1827
sS'However,'
p2377
I1869
sS'refugee,'
p2378
I925
sS'work,'
p2379
I1370
sS'ads'
p2380
I392
sS'Chinas'
p2381
I1328
sS'wed'
p2382
I950
sS'sky'
p2383
I20
sS'refugee '
p2384
I1171
sS'coattails'
p2385
I1553
sS'By'
p2386
I541
sS'smart'
p2387
I752
sS'divided'
p2388
I1894
sS'identical'
p2389
I476
sS'seat '
p2390
I371
sS'government'
p2391
I93
sS'seat,'
p2392
I1593
sS'five'
p2393
I654
sS'know'
p2394
I1166
sS'burden'
p2395
I834
sS'googletag display("div gpt 300x250_2");'
p2396
I1884
sS'immediately'
p2397
I365
sS'name'
p2398
I2312
sS'displaced'
p2399
I684
sS'necessary'
p2400
I836
sS'like'
p2401
I266
sS'lost'
p2402
I1537
sS'1989,'
p2403
I607
sS'perpetual'
p2404
I1389
sS'admitted'
p2405
I1791
sS'breathlessness,'
p2406
I267
sS'(or'
p2407
I489
sS'lose'
p2408
I1377
sS'become'
p2409
I1257
sS'works'
p2410
I1239
sS'refugees'
p2411
I574
sS'suddenly'
p2412
I1465
sS'dispossession'
p2413
I558
sS'searching'
p2414
I1274
sS'alive'
p2415
I1642
sS'past,'
p2416
I1926
sS'alike '
p2417
I1952
sS'superficial '
p2418
I1403
sS'lightweights '
p2419
I2000
sS'home'
p2420
I503
sS'ballot'
p2421
I308
sS'poet,'
p2422
I1337
sS'happens'
p2423
I1376
sS'contested'
p2424
I1634
sS'lead'
p2425
I1563
sS'literally'
p2426
I146
sS'before '
p2427
I595
sS'War'
p2428
I597
sS'leap'
p2429
I821
sS'pets '
p2430
I2099
sS'leader'
p2431
I1831
sS'regain'
p2432
I1607
sS'reaching'
p2433
I1928
sS'she,'
p2434
I490
sS'pop up'
p2435
I1307
sS'90,000'
p2436
I1438
sS'Erickson ___Peoples'
p2437
I2063
sS'stage'
p2438
I1931
sS'rare'
p2439
I1698
sS"I've"
p2440
I2338
sS'Bayhs'
p2441
I1743
sS'recognized'
p2442
I897
sS'Kate'
p2443
I1783
sS'moderate '
p2444
I305
sS'Americans'
p2445
I662
sS'whistles'
p2446
I632
sS'centrist'
p2447
I1588
sS'previously'
p2448
I560
sS'court,'
p2449
I1583
sS'schools On'
p2450
I251
sS'Two'
p2451
I1116
sS'doesnt'
p2452
I845
sS'times,'
p2453
I1978
sS'female'
p2454
I1986
sS'Pashtun'
p2455
I960
sS'strategy'
p2456
I2037
sS'Thousands'
p2457
I1064
sS'inner city'
p2458
I2388
sS'nomination,'
p2459
I293
sS'pairing'
p2460
I1236
sS'election,'
p2461
I1521
sS'celebration'
p2462
I1700
sS'accountant'
p2463
I404
sS'"We'
p2464
I761
sS'north'
p2465
I39
sS'Science'
p2466
I2367
sS'Brighton '
p2467
I1303
sS'56,'
p2468
I1298
sS'children '
p2469
I833
sS'Iraq '
p2470
I1361
sS'evening '
p2471
I1703
sS'children,'
p2472
I2128
sS'highest'
p2473
I815
sS'barrel bombing'
p2474
I828
sS'challenges'
p2475
I1720
sS'un executed'
p2476
I1087
sS'places'
p2477
I88
sS'whether'
p2478
I438
sS'Tea'
p2479
I455
sS'this,'
p2480
I2488
sS'forward "If'
p2481
I2054
sS'limit'
p2482
I91
sS'ruling'
p2483
I1871
sS'pumped'
p2484
I374
sS'choosing,'
p2485
I1859
sS'supreme'
p2486
I1582
sS'deaths'
p2487
I225
sS'recognize'
p2488
I951
sS'kind '
p2489
I1242
sS'tide '
p2490
I1272
sS'shooting'
p2491
I2287
sS'problematic,'
p2492
I2416
sS'variety'
p2493
I2245
sS'areas '
p2494
I2369
sS'claiming'
p2495
I399
sS'Islamic'
p2496
I1024
sS'primary '
p2497
I333
sS'tightest'
p2498
I2250
sS"administration Trump's"
p2499
I2015
sS'chatted'
p2500
I2101
sS'County,'
p2501
I2363
sS'again '
p2502
I1412
sS'ultimately'
p2503
I2017
sS'star,'
p2504
I1993
sS'April'
p2505
I1294
sS'chance'
p2506
I1244
sS'Future'
p2507
I533
sS'pure'
p2508
I1953
sS'Georgia],'
p2509
I2218
sS'Michaels'
p2510
I2334
sS'in '
p2511
I2408
sS'South'
p2512
I536
sS'exposure'
p2513
I98
sS'ghost'
p2514
I830
sS'status'
p2515
I2016
sS'rural'
p2516
I1332
sS'showman,'
p2517
I2036
s.